; Function Attrs: mustprogress uwtable
define void @_ZN32pxrInternal_v0_24__pxrReserved__36HdSingleInputFilteringSceneIndexBase9_Observer12PrimsRenamedERKNS_16HdSceneIndexBaseERKNS_13TfSmallVectorINS_20HdSceneIndexObserver16RenamedPrimEntryELj16EEE(ptr nocapture noundef nonnull readonly align 8 dereferenceable(24) %0, ptr noundef nonnull align 8 dereferenceable(120) %1, ptr noundef nonnull align 1 %2) unnamed_addr #2 align 2 {
  %4 = getelementptr inbounds nuw i8, ptr %0, i64 16
  %5 = load ptr, ptr %4, align 8
  %6 = load ptr, ptr %5, align 8
  %7 = getelementptr inbounds i8, ptr %6, i64 72
  %8 = load ptr, ptr %7, align 8
  tail call void %8(ptr noundef nonnull align 8 dereferenceable(152) %5, ptr noundef nonnull align 8 dereferenceable(120) %1, ptr noundef nonnull align 1 %2)
  ret void
}